; Function Attrs: nounwind uwtable
define ptr @l___private_Lean_Compiler_IR_0__Lean_IR_compileAux___lambda__1___boxed(ptr noundef %0, ptr noundef %1, ptr noundef %2, ptr noundef %3, ptr noundef %4, ptr noundef %5, ptr noundef %6) local_unnamed_addr #0 {
  %8 = getelementptr i8, ptr %0, i64 8
  %.val = load i64, ptr %8, align 8, !tbaa !12
  %9 = ptrtoint ptr %0 to i64
  %10 = and i64 %9, 1
  %.not = icmp eq i64 %10, 0
  br i1 %.not, label %11, label %lean_dec.exit14

11:                                               ; preds = %7
  %12 = load i32, ptr %0, align 4, !tbaa !8
  %13 = icmp sgt i32 %12, 1
  br i1 %13, label %14, label %16, !prof !11

14:                                               ; preds = %11
  %15 = add nsw i32 %12, -1
  store i32 %15, ptr %0, align 4, !tbaa !8
  br label %lean_dec.exit14

16:                                               ; preds = %11
  %.not.i = icmp eq i32 %12, 0
  br i1 %.not.i, label %lean_dec.exit14, label %17

17:                                               ; preds = %16
  tail call void @lean_dec_ref_cold(ptr noundef nonnull %0) #4
  br label %lean_dec.exit14

lean_dec.exit14:                                  ; preds = %17, %16, %14, %7
  %18 = tail call ptr @l___private_Lean_Compiler_IR_0__Lean_IR_compileAux___lambda__1(i64 noundef %.val, ptr noundef %1, ptr noundef %2, ptr noundef %3, ptr poison, ptr noundef %5, ptr noundef %6)
  %19 = ptrtoint ptr %5 to i64
  %20 = and i64 %19, 1
  %.not21 = icmp eq i64 %20, 0
  br i1 %.not21, label %21, label %lean_dec.exit13

21:                                               ; preds = %lean_dec.exit14
  %22 = load i32, ptr %5, align 4, !tbaa !8
  %23 = icmp sgt i32 %22, 1
  br i1 %23, label %24, label %26, !prof !11

24:                                               ; preds = %21
  %25 = add nsw i32 %22, -1
  store i32 %25, ptr %5, align 4, !tbaa !8
  br label %lean_dec.exit13

26:                                               ; preds = %21
  %.not.i15 = icmp eq i32 %22, 0
  br i1 %.not.i15, label %lean_dec.exit13, label %27

27:                                               ; preds = %26
  tail call void @lean_dec_ref_cold(ptr noundef nonnull %5) #4
  br label %lean_dec.exit13

lean_dec.exit13:                                  ; preds = %27, %26, %24, %lean_dec.exit14
  %28 = ptrtoint ptr %4 to i64
  %29 = and i64 %28, 1
  %.not22 = icmp eq i64 %29, 0
  br i1 %.not22, label %30, label %lean_dec.exit12

30:                                               ; preds = %lean_dec.exit13
  %31 = load i32, ptr %4, align 4, !tbaa !8
  %32 = icmp sgt i32 %31, 1
  br i1 %32, label %33, label %35, !prof !11

33:                                               ; preds = %30
  %34 = add nsw i32 %31, -1
  store i32 %34, ptr %4, align 4, !tbaa !8
  br label %lean_dec.exit12

35:                                               ; preds = %30
  %.not.i17 = icmp eq i32 %31, 0
  br i1 %.not.i17, label %lean_dec.exit12, label %36

36:                                               ; preds = %35
  tail call void @lean_dec_ref_cold(ptr noundef nonnull %4) #4
  br label %lean_dec.exit12

lean_dec.exit12:                                  ; preds = %36, %35, %33, %lean_dec.exit13
  %37 = ptrtoint ptr %1 to i64
  %38 = and i64 %37, 1
  %.not23 = icmp eq i64 %38, 0
  br i1 %.not23, label %39, label %lean_dec.exit

39:                                               ; preds = %lean_dec.exit12
  %40 = load i32, ptr %1, align 4, !tbaa !8
  %41 = icmp sgt i32 %40, 1
  br i1 %41, label %42, label %44, !prof !11

42:                                               ; preds = %39
  %43 = add nsw i32 %40, -1
  store i32 %43, ptr %1, align 4, !tbaa !8
  br label %lean_dec.exit

44:                                               ; preds = %39
  %.not.i19 = icmp eq i32 %40, 0
  br i1 %.not.i19, label %lean_dec.exit, label %45

45:                                               ; preds = %44
  tail call void @lean_dec_ref_cold(ptr noundef nonnull %1) #4
  br label %lean_dec.exit

lean_dec.exit:                                    ; preds = %45, %44, %42, %lean_dec.exit12
  ret ptr %18
}